target datalayout = "e-m:e-p270:32:32-p271:32:32-p272:64:64-i64:64-i128:128-f80:128-n8:16:32:64-S128"
target triple = "x86_64-pc-linux-gnu"

%struct.t_commrec = type <{ i32, i32, i32, i32, ptr, ptr, i32, [4 x i8], ptr, i32, i32, %struct.gmx_nodecomm_t, %"class.std::unique_ptr.2", ptr, i32, [4 x i8] }>
%struct.gmx_nodecomm_t = type { i8, ptr, i32, ptr }
%"class.std::unique_ptr.2" = type { %"struct.std::__uniq_ptr_data.3" }
%"struct.std::__uniq_ptr_data.3" = type { %"class.std::__uniq_ptr_impl.4" }
%"class.std::__uniq_ptr_impl.4" = type { %"class.std::tuple.5" }
%"class.std::tuple.5" = type { %"struct.std::_Tuple_impl.6" }
%"struct.std::_Tuple_impl.6" = type { %"struct.std::_Head_base.9" }
%"struct.std::_Head_base.9" = type { ptr }

; Function Attrs: mustprogress nounwind uwtable
define linkonce_odr noundef i32 @_Z17getThisRankDutiesPK9t_commrec(ptr noundef %0) #2 comdat {
  %2 = alloca ptr, align 8
  store ptr %0, ptr %2, align 8
  %3 = load ptr, ptr %2, align 8
  %4 = getelementptr inbounds %struct.t_commrec, ptr %3, i32 0, i32 14
  %5 = load i32, ptr %4, align 8
  ret i32 %5
}

; Function Attrs: mustprogress uwtable
define linkonce_odr noundef zeroext i1 @_Z15thisRankHasDutyPK9t_commreci(ptr noundef %0, i32 noundef %1) #0 comdat {
  %3 = alloca ptr, align 8
  %4 = alloca i32, align 4
  store ptr %0, ptr %3, align 8
  store i32 %1, ptr %4, align 4
  %5 = load ptr, ptr %3, align 8
  %6 = call noundef i32 @_Z17getThisRankDutiesPK9t_commrec(ptr noundef %5)
  %7 = load i32, ptr %4, align 4
  %8 = and i32 %6, %7
  %9 = icmp ne i32 %8, 0
  ret i1 %9
}

; Function Attrs: mustprogress uwtable
define noundef ptr @_Z11opt2fn_mainPKciPK8t_filenmP9t_commrec(ptr noundef %0, i32 noundef %1, ptr noundef %2, ptr noundef %3) #0 {
  %5 = alloca ptr, align 8
  %6 = alloca i32, align 4
  %7 = alloca ptr, align 8
  %8 = alloca ptr, align 8
  store ptr %0, ptr %5, align 8
  store i32 %1, ptr %6, align 4
  store ptr %2, ptr %7, align 8
  store ptr %3, ptr %8, align 8
  %9 = load ptr, ptr %8, align 8
  %10 = getelementptr inbounds %struct.t_commrec, ptr %9, i32 0, i32 10
  %11 = load i32, ptr %10, align 4
  %12 = icmp eq i32 %11, 0
  br i1 %12, label %18, label %13

13:                                               ; preds = %4
  %14 = load ptr, ptr %8, align 8
  %15 = getelementptr inbounds %struct.t_commrec, ptr %14, i32 0, i32 9
  %16 = load i32, ptr %15, align 8
  %17 = icmp sgt i32 %16, 1
  br i1 %17, label %21, label %18

18:                                               ; preds = %13, %4
  %19 = load ptr, ptr %8, align 8
  %20 = call noundef zeroext i1 @_Z15thisRankHasDutyPK9t_commreci(ptr noundef %19, i32 noundef 1)
  br i1 %20, label %26, label %21

21:                                               ; preds = %18, %13
  %22 = load ptr, ptr %8, align 8
  %23 = getelementptr inbounds %struct.t_commrec, ptr %22, i32 0, i32 9
  %24 = load i32, ptr %23, align 8
  %25 = icmp sgt i32 %24, 1
  br i1 %25, label %31, label %26

26:                                               ; preds = %21, %18
  %27 = load ptr, ptr %5, align 8
  %28 = load i32, ptr %6, align 4
  %29 = load ptr, ptr %7, align 8
  %30 = call noundef ptr @_Z6opt2fnPKciPK8t_filenm(ptr noundef %27, i32 noundef %28, ptr noundef %29)
  br label %32

31:                                               ; preds = %21
  br label %32

32:                                               ; preds = %31, %26
  %33 = phi ptr [ %30, %26 ], [ null, %31 ]
  ret ptr %33
}