; Function Attrs: mustprogress uwtable
define noundef ptr @_Z11opt2fn_mainPKciPK8t_filenmP9t_commrec(ptr noundef %0, i32 noundef %1, ptr noundef %2, ptr nocapture noundef readonly %3) local_unnamed_addr #0 {
  %5 = getelementptr inbounds i8, ptr %3, i64 52
  %6 = load i32, ptr %5, align 4
  %7 = icmp eq i32 %6, 0
  br i1 %7, label %12, label %8

8:                                                ; preds = %4
  %9 = getelementptr inbounds i8, ptr %3, i64 48
  %10 = load i32, ptr %9, align 8
  %11 = icmp sgt i32 %10, 1
  br i1 %11, label %.thread, label %12

12:                                               ; preds = %8, %4
  %13 = getelementptr inbounds i8, ptr %3, i64 104
  %14 = load i32, ptr %13, align 8
  %15 = and i32 %14, 1
  %.not = icmp eq i32 %15, 0
  br i1 %.not, label %16, label %18

16:                                               ; preds = %12
  %.phi.trans.insert = getelementptr inbounds i8, ptr %3, i64 48
  %.pre = load i32, ptr %.phi.trans.insert, align 8
  %17 = icmp sgt i32 %.pre, 1
  br i1 %17, label %.thread, label %18

18:                                               ; preds = %16, %12
  %19 = tail call noundef ptr @_Z6opt2fnPKciPK8t_filenm(ptr noundef %0, i32 noundef %1, ptr noundef %2)
  br label %.thread

.thread:                                          ; preds = %8, %16, %18
  %20 = phi ptr [ %19, %18 ], [ null, %16 ], [ null, %8 ]
  ret ptr %20
}